#include <math.h>
#include <stdio.h>
#include <stdlib.h>
#include <string.h>
#include <iostream>
using namespace std;

int main()
{
	int i,j,n,a[100],b[100];
	cin>>n;
	for(i=1;i<=n;i++)
	{
		cin>>a[i];
		b[n-i+1]=a[i];
	}
	for(j=1;j<n;j++)
	{
		cout<<b[j]<<" ";
	}
	cout<<b[j]<<endl;
	return 0;
}